target datalayout = "e-m:e-p270:32:32-p271:32:32-p272:64:64-i64:64-i128:128-f80:128-n8:16:32:64-S128"
target triple = "x86_64-pc-linux-gnu"

%"class.ncnn::Mat" = type { ptr, ptr, i64, i32, ptr, i32, i32, i32, i32, i32, i64 }

; Function Attrs: alwaysinline mustprogress nounwind uwtable
define internal void @_ZN4ncnnL8fastFreeEPv(ptr noundef %0) #2 {
  %2 = alloca ptr, align 8
  store ptr %0, ptr %2, align 8, !tbaa !32
  %3 = load ptr, ptr %2, align 8, !tbaa !32
  %4 = icmp ne ptr %3, null
  br i1 %4, label %5, label %7

5:                                                ; preds = %1
  %6 = load ptr, ptr %2, align 8, !tbaa !32
  call void @free(ptr noundef %6) #9
  br label %7

7:                                                ; preds = %5, %1
  ret void
}

; Function Attrs: alwaysinline mustprogress nounwind uwtable
define internal noundef ptr @_ZN4ncnnL10fastMallocEm(i64 noundef %0) #2 {
  %2 = alloca i64, align 8
  %3 = alloca ptr, align 8
  store i64 %0, ptr %2, align 8, !tbaa !24
  call void @llvm.lifetime.start.p0(i64 8, ptr %3) #9
  store ptr null, ptr %3, align 8, !tbaa !32
  %4 = load i64, ptr %2, align 8, !tbaa !24
  %5 = add i64 %4, 64
  %6 = call i32 @posix_memalign(ptr noundef %3, i64 noundef 64, i64 noundef %5) #9
  %7 = icmp ne i32 %6, 0
  br i1 %7, label %8, label %9

8:                                                ; preds = %1
  store ptr null, ptr %3, align 8, !tbaa !32
  br label %9

9:                                                ; preds = %8, %1
  %10 = load ptr, ptr %3, align 8, !tbaa !32
  call void @llvm.lifetime.end.p0(i64 8, ptr %3) #9
  ret ptr %10
}

; Function Attrs: alwaysinline mustprogress nounwind uwtable
define linkonce_odr hidden noundef i64 @_ZNK4ncnn3Mat5totalEv(ptr noundef nonnull align 8 dereferenceable(72) %0) #2 comdat align 2 {
  %2 = alloca ptr, align 8
  store ptr %0, ptr %2, align 8, !tbaa !4
  %3 = load ptr, ptr %2, align 8
  %4 = getelementptr inbounds nuw %"class.ncnn::Mat", ptr %3, i32 0, i32 10
  %5 = load i64, ptr %4, align 8, !tbaa !22
  %6 = getelementptr inbounds nuw %"class.ncnn::Mat", ptr %3, i32 0, i32 9
  %7 = load i32, ptr %6, align 8, !tbaa !20
  %8 = sext i32 %7 to i64
  %9 = mul i64 %5, %8
  ret i64 %9
}

; Function Attrs: alwaysinline mustprogress nounwind uwtable
define internal noundef i64 @_ZN4ncnnL9alignSizeEmi(i64 noundef %0, i32 noundef %1) #2 {
  %3 = alloca i64, align 8
  %4 = alloca i32, align 4
  store i64 %0, ptr %3, align 8, !tbaa !24
  store i32 %1, ptr %4, align 4, !tbaa !25
  %5 = load i64, ptr %3, align 8, !tbaa !24
  %6 = load i32, ptr %4, align 4, !tbaa !25
  %7 = sext i32 %6 to i64
  %8 = add i64 %5, %7
  %9 = sub i64 %8, 1
  %10 = load i32, ptr %4, align 4, !tbaa !25
  %11 = sub nsw i32 0, %10
  %12 = sext i32 %11 to i64
  %13 = and i64 %9, %12
  ret i64 %13
}

; Function Attrs: alwaysinline mustprogress uwtable
define linkonce_odr hidden void @_ZN4ncnn3Mat7releaseEv(ptr noundef nonnull align 8 dereferenceable(72) %0) #1 comdat align 2 {
  %2 = alloca ptr, align 8
  %3 = alloca i32, align 4
  %4 = alloca i32, align 4
  store ptr %0, ptr %2, align 8, !tbaa !4
  %5 = load ptr, ptr %2, align 8
  %6 = getelementptr inbounds nuw %"class.ncnn::Mat", ptr %5, i32 0, i32 1
  %7 = load ptr, ptr %6, align 8, !tbaa !28
  %8 = icmp ne ptr %7, null
  br i1 %8, label %9, label %32

9:                                                ; preds = %1
  %10 = getelementptr inbounds nuw %"class.ncnn::Mat", ptr %5, i32 0, i32 1
  %11 = load ptr, ptr %10, align 8, !tbaa !28
  store i32 -1, ptr %3, align 4, !tbaa !25
  %12 = load i32, ptr %3, align 4
  %13 = atomicrmw add ptr %11, i32 %12 acq_rel, align 4
  store i32 %13, ptr %4, align 4
  %14 = load i32, ptr %4, align 4, !tbaa !25
  %15 = icmp eq i32 %14, 1
  br i1 %15, label %16, label %32

16:                                               ; preds = %9
  %17 = getelementptr inbounds nuw %"class.ncnn::Mat", ptr %5, i32 0, i32 4
  %18 = load ptr, ptr %17, align 8, !tbaa !29
  %19 = icmp ne ptr %18, null
  br i1 %19, label %20, label %28

20:                                               ; preds = %16
  %21 = getelementptr inbounds nuw %"class.ncnn::Mat", ptr %5, i32 0, i32 4
  %22 = load ptr, ptr %21, align 8, !tbaa !29
  %23 = getelementptr inbounds nuw %"class.ncnn::Mat", ptr %5, i32 0, i32 0
  %24 = load ptr, ptr %23, align 8, !tbaa !23
  %25 = load ptr, ptr %22, align 8, !tbaa !30
  %26 = getelementptr inbounds ptr, ptr %25, i64 3
  %27 = load ptr, ptr %26, align 8
  call void %27(ptr noundef nonnull align 8 dereferenceable(8) %22, ptr noundef %24)
  br label %31

28:                                               ; preds = %16
  %29 = getelementptr inbounds nuw %"class.ncnn::Mat", ptr %5, i32 0, i32 0
  %30 = load ptr, ptr %29, align 8, !tbaa !23
  call void @_ZN4ncnnL8fastFreeEPv(ptr noundef %30)
  br label %31

31:                                               ; preds = %28, %20
  br label %32

32:                                               ; preds = %31, %9, %1
  %33 = getelementptr inbounds nuw %"class.ncnn::Mat", ptr %5, i32 0, i32 0
  store ptr null, ptr %33, align 8, !tbaa !23
  %34 = getelementptr inbounds nuw %"class.ncnn::Mat", ptr %5, i32 0, i32 2
  store i64 0, ptr %34, align 8, !tbaa !17
  %35 = getelementptr inbounds nuw %"class.ncnn::Mat", ptr %5, i32 0, i32 3
  store i32 0, ptr %35, align 8, !tbaa !18
  %36 = getelementptr inbounds nuw %"class.ncnn::Mat", ptr %5, i32 0, i32 5
  store i32 0, ptr %36, align 8, !tbaa !11
  %37 = getelementptr inbounds nuw %"class.ncnn::Mat", ptr %5, i32 0, i32 6
  store i32 0, ptr %37, align 4, !tbaa !16
  %38 = getelementptr inbounds nuw %"class.ncnn::Mat", ptr %5, i32 0, i32 7
  store i32 0, ptr %38, align 8, !tbaa !19
  %39 = getelementptr inbounds nuw %"class.ncnn::Mat", ptr %5, i32 0, i32 8
  store i32 0, ptr %39, align 4, !tbaa !21
  %40 = getelementptr inbounds nuw %"class.ncnn::Mat", ptr %5, i32 0, i32 9
  store i32 0, ptr %40, align 8, !tbaa !20
  %41 = getelementptr inbounds nuw %"class.ncnn::Mat", ptr %5, i32 0, i32 10
  store i64 0, ptr %41, align 8, !tbaa !22
  %42 = getelementptr inbounds nuw %"class.ncnn::Mat", ptr %5, i32 0, i32 1
  store ptr null, ptr %42, align 8, !tbaa !28
  ret void
}

; Function Attrs: mustprogress uwtable
define hidden void @_ZN4ncnn3Mat6createEiiiimiPNS_9AllocatorE(ptr noundef nonnull align 8 dereferenceable(72) %0, i32 noundef %1, i32 noundef %2, i32 noundef %3, i32 noundef %4, i64 noundef %5, i32 noundef %6, ptr noundef %7) #0 align 2 {
  %9 = alloca ptr, align 8
  %10 = alloca i32, align 4
  %11 = alloca i32, align 4
  %12 = alloca i32, align 4
  %13 = alloca i32, align 4
  %14 = alloca i64, align 8
  %15 = alloca i32, align 4
  %16 = alloca ptr, align 8
  %17 = alloca i64, align 8
  store ptr %0, ptr %9, align 8, !tbaa !4
  store i32 %1, ptr %10, align 4, !tbaa !25
  store i32 %2, ptr %11, align 4, !tbaa !25
  store i32 %3, ptr %12, align 4, !tbaa !25
  store i32 %4, ptr %13, align 4, !tbaa !25
  store i64 %5, ptr %14, align 8, !tbaa !24
  store i32 %6, ptr %15, align 4, !tbaa !25
  store ptr %7, ptr %16, align 8, !tbaa !9
  %18 = load ptr, ptr %9, align 8
  %19 = getelementptr inbounds nuw %"class.ncnn::Mat", ptr %18, i32 0, i32 5
  %20 = load i32, ptr %19, align 8, !tbaa !11
  %21 = icmp eq i32 %20, 4
  br i1 %21, label %22, label %58

22:                                               ; preds = %8
  %23 = getelementptr inbounds nuw %"class.ncnn::Mat", ptr %18, i32 0, i32 6
  %24 = load i32, ptr %23, align 4, !tbaa !16
  %25 = load i32, ptr %10, align 4, !tbaa !25
  %26 = icmp eq i32 %24, %25
  br i1 %26, label %27, label %58

27:                                               ; preds = %22
  %28 = getelementptr inbounds nuw %"class.ncnn::Mat", ptr %18, i32 0, i32 7
  %29 = load i32, ptr %28, align 8, !tbaa !19
  %30 = load i32, ptr %11, align 4, !tbaa !25
  %31 = icmp eq i32 %29, %30
  br i1 %31, label %32, label %58

32:                                               ; preds = %27
  %33 = getelementptr inbounds nuw %"class.ncnn::Mat", ptr %18, i32 0, i32 8
  %34 = load i32, ptr %33, align 4, !tbaa !21
  %35 = load i32, ptr %12, align 4, !tbaa !25
  %36 = icmp eq i32 %34, %35
  br i1 %36, label %37, label %58

37:                                               ; preds = %32
  %38 = getelementptr inbounds nuw %"class.ncnn::Mat", ptr %18, i32 0, i32 9
  %39 = load i32, ptr %38, align 8, !tbaa !20
  %40 = load i32, ptr %13, align 4, !tbaa !25
  %41 = icmp eq i32 %39, %40
  br i1 %41, label %42, label %58

42:                                               ; preds = %37
  %43 = getelementptr inbounds nuw %"class.ncnn::Mat", ptr %18, i32 0, i32 2
  %44 = load i64, ptr %43, align 8, !tbaa !17
  %45 = load i64, ptr %14, align 8, !tbaa !24
  %46 = icmp eq i64 %44, %45
  br i1 %46, label %47, label %58

47:                                               ; preds = %42
  %48 = getelementptr inbounds nuw %"class.ncnn::Mat", ptr %18, i32 0, i32 3
  %49 = load i32, ptr %48, align 8, !tbaa !18
  %50 = load i32, ptr %15, align 4, !tbaa !25
  %51 = icmp eq i32 %49, %50
  br i1 %51, label %52, label %58

52:                                               ; preds = %47
  %53 = getelementptr inbounds nuw %"class.ncnn::Mat", ptr %18, i32 0, i32 4
  %54 = load ptr, ptr %53, align 8, !tbaa !29
  %55 = load ptr, ptr %16, align 8, !tbaa !9
  %56 = icmp eq ptr %54, %55
  br i1 %56, label %57, label %58

57:                                               ; preds = %52
  br label %133

58:                                               ; preds = %52, %47, %42, %37, %32, %27, %22, %8
  call void @_ZN4ncnn3Mat7releaseEv(ptr noundef nonnull align 8 dereferenceable(72) %18)
  %59 = load i64, ptr %14, align 8, !tbaa !24
  %60 = getelementptr inbounds nuw %"class.ncnn::Mat", ptr %18, i32 0, i32 2
  store i64 %59, ptr %60, align 8, !tbaa !17
  %61 = load i32, ptr %15, align 4, !tbaa !25
  %62 = getelementptr inbounds nuw %"class.ncnn::Mat", ptr %18, i32 0, i32 3
  store i32 %61, ptr %62, align 8, !tbaa !18
  %63 = load ptr, ptr %16, align 8, !tbaa !9
  %64 = getelementptr inbounds nuw %"class.ncnn::Mat", ptr %18, i32 0, i32 4
  store ptr %63, ptr %64, align 8, !tbaa !29
  %65 = getelementptr inbounds nuw %"class.ncnn::Mat", ptr %18, i32 0, i32 5
  store i32 4, ptr %65, align 8, !tbaa !11
  %66 = load i32, ptr %10, align 4, !tbaa !25
  %67 = getelementptr inbounds nuw %"class.ncnn::Mat", ptr %18, i32 0, i32 6
  store i32 %66, ptr %67, align 4, !tbaa !16
  %68 = load i32, ptr %11, align 4, !tbaa !25
  %69 = getelementptr inbounds nuw %"class.ncnn::Mat", ptr %18, i32 0, i32 7
  store i32 %68, ptr %69, align 8, !tbaa !19
  %70 = load i32, ptr %12, align 4, !tbaa !25
  %71 = getelementptr inbounds nuw %"class.ncnn::Mat", ptr %18, i32 0, i32 8
  store i32 %70, ptr %71, align 4, !tbaa !21
  %72 = load i32, ptr %13, align 4, !tbaa !25
  %73 = getelementptr inbounds nuw %"class.ncnn::Mat", ptr %18, i32 0, i32 9
  store i32 %72, ptr %73, align 8, !tbaa !20
  %74 = getelementptr inbounds nuw %"class.ncnn::Mat", ptr %18, i32 0, i32 6
  %75 = load i32, ptr %74, align 4, !tbaa !16
  %76 = sext i32 %75 to i64
  %77 = getelementptr inbounds nuw %"class.ncnn::Mat", ptr %18, i32 0, i32 7
  %78 = load i32, ptr %77, align 8, !tbaa !19
  %79 = sext i32 %78 to i64
  %80 = mul i64 %76, %79
  %81 = getelementptr inbounds nuw %"class.ncnn::Mat", ptr %18, i32 0, i32 8
  %82 = load i32, ptr %81, align 4, !tbaa !21
  %83 = sext i32 %82 to i64
  %84 = mul i64 %80, %83
  %85 = getelementptr inbounds nuw %"class.ncnn::Mat", ptr %18, i32 0, i32 2
  %86 = load i64, ptr %85, align 8, !tbaa !17
  %87 = mul i64 %84, %86
  %88 = call noundef i64 @_ZN4ncnnL9alignSizeEmi(i64 noundef %87, i32 noundef 16)
  %89 = getelementptr inbounds nuw %"class.ncnn::Mat", ptr %18, i32 0, i32 2
  %90 = load i64, ptr %89, align 8, !tbaa !17
  %91 = udiv i64 %88, %90
  %92 = getelementptr inbounds nuw %"class.ncnn::Mat", ptr %18, i32 0, i32 10
  store i64 %91, ptr %92, align 8, !tbaa !22
  call void @llvm.lifetime.start.p0(i64 8, ptr %17) #9
  %93 = call noundef i64 @_ZNK4ncnn3Mat5totalEv(ptr noundef nonnull align 8 dereferenceable(72) %18)
  %94 = getelementptr inbounds nuw %"class.ncnn::Mat", ptr %18, i32 0, i32 2
  %95 = load i64, ptr %94, align 8, !tbaa !17
  %96 = mul i64 %93, %95
  %97 = call noundef i64 @_ZN4ncnnL9alignSizeEmi(i64 noundef %96, i32 noundef 4)
  store i64 %97, ptr %17, align 8, !tbaa !24
  %98 = load i64, ptr %17, align 8, !tbaa !24
  %99 = icmp ugt i64 %98, 0
  br i1 %99, label %100, label %120

100:                                              ; preds = %58
  %101 = getelementptr inbounds nuw %"class.ncnn::Mat", ptr %18, i32 0, i32 4
  %102 = load ptr, ptr %101, align 8, !tbaa !29
  %103 = icmp ne ptr %102, null
  br i1 %103, label %104, label %114

104:                                              ; preds = %100
  %105 = getelementptr inbounds nuw %"class.ncnn::Mat", ptr %18, i32 0, i32 4
  %106 = load ptr, ptr %105, align 8, !tbaa !29
  %107 = load i64, ptr %17, align 8, !tbaa !24
  %108 = add i64 %107, 4
  %109 = load ptr, ptr %106, align 8, !tbaa !30
  %110 = getelementptr inbounds ptr, ptr %109, i64 2
  %111 = load ptr, ptr %110, align 8
  %112 = call noundef ptr %111(ptr noundef nonnull align 8 dereferenceable(8) %106, i64 noundef %108)
  %113 = getelementptr inbounds nuw %"class.ncnn::Mat", ptr %18, i32 0, i32 0
  store ptr %112, ptr %113, align 8, !tbaa !23
  br label %119

114:                                              ; preds = %100
  %115 = load i64, ptr %17, align 8, !tbaa !24
  %116 = add i64 %115, 4
  %117 = call noundef ptr @_ZN4ncnnL10fastMallocEm(i64 noundef %116)
  %118 = getelementptr inbounds nuw %"class.ncnn::Mat", ptr %18, i32 0, i32 0
  store ptr %117, ptr %118, align 8, !tbaa !23
  br label %119

119:                                              ; preds = %114, %104
  br label %120

120:                                              ; preds = %119, %58
  %121 = getelementptr inbounds nuw %"class.ncnn::Mat", ptr %18, i32 0, i32 0
  %122 = load ptr, ptr %121, align 8, !tbaa !23
  %123 = icmp ne ptr %122, null
  br i1 %123, label %124, label %132

124:                                              ; preds = %120
  %125 = getelementptr inbounds nuw %"class.ncnn::Mat", ptr %18, i32 0, i32 0
  %126 = load ptr, ptr %125, align 8, !tbaa !23
  %127 = load i64, ptr %17, align 8, !tbaa !24
  %128 = getelementptr inbounds nuw i8, ptr %126, i64 %127
  %129 = getelementptr inbounds nuw %"class.ncnn::Mat", ptr %18, i32 0, i32 1
  store ptr %128, ptr %129, align 8, !tbaa !28
  %130 = getelementptr inbounds nuw %"class.ncnn::Mat", ptr %18, i32 0, i32 1
  %131 = load ptr, ptr %130, align 8, !tbaa !28
  store i32 1, ptr %131, align 4, !tbaa !25
  br label %132

132:                                              ; preds = %124, %120
  call void @llvm.lifetime.end.p0(i64 8, ptr %17) #9
  br label %133

133:                                              ; preds = %132, %57
  ret void
}