; Function Attrs: mustprogress uwtable
define hidden void @_ZN4ncnn3Mat6createEiiiimiPNS_9AllocatorE(ptr noundef nonnull align 8 captures(none) dereferenceable(72) %0, i32 noundef %1, i32 noundef %2, i32 noundef %3, i32 noundef %4, i64 noundef %5, i32 noundef %6, ptr noundef %7) local_unnamed_addr #0 align 2 {
  %9 = alloca ptr, align 8
  %10 = getelementptr inbounds nuw i8, ptr %0, i64 40
  %11 = load i32, ptr %10, align 8, !tbaa !15
  %12 = icmp eq i32 %11, 4
  %13 = getelementptr inbounds nuw i8, ptr %0, i64 44
  %14 = load i32, ptr %13, align 4
  %15 = icmp eq i32 %14, %1
  %or.cond = select i1 %12, i1 %15, i1 false
  %16 = getelementptr inbounds nuw i8, ptr %0, i64 48
  %17 = load i32, ptr %16, align 8
  %18 = icmp eq i32 %17, %2
  %or.cond26 = select i1 %or.cond, i1 %18, i1 false
  %19 = getelementptr inbounds nuw i8, ptr %0, i64 52
  %20 = load i32, ptr %19, align 4
  %21 = icmp eq i32 %20, %3
  %or.cond29 = select i1 %or.cond26, i1 %21, i1 false
  %22 = getelementptr inbounds nuw i8, ptr %0, i64 56
  %23 = load i32, ptr %22, align 8
  %24 = icmp eq i32 %23, %4
  %or.cond32 = select i1 %or.cond29, i1 %24, i1 false
  %25 = getelementptr inbounds nuw i8, ptr %0, i64 16
  %26 = load i64, ptr %25, align 8
  %27 = icmp eq i64 %26, %5
  %or.cond35 = select i1 %or.cond32, i1 %27, i1 false
  %28 = getelementptr inbounds nuw i8, ptr %0, i64 24
  %29 = load i32, ptr %28, align 8
  %30 = icmp eq i32 %29, %6
  %or.cond38 = select i1 %or.cond35, i1 %30, i1 false
  %31 = getelementptr inbounds nuw i8, ptr %0, i64 32
  %32 = load ptr, ptr %31, align 8
  %33 = icmp eq ptr %32, %7
  %or.cond41 = select i1 %or.cond38, i1 %33, i1 false
  br i1 %or.cond41, label %thread-pre-split.thread, label %34

34:                                               ; preds = %8
  %35 = getelementptr inbounds nuw i8, ptr %0, i64 8
  %36 = load ptr, ptr %35, align 8, !tbaa !19
  %.not.i = icmp eq ptr %36, null
  br i1 %.not.i, label %_ZN4ncnn3Mat7releaseEv.exit, label %37

37:                                               ; preds = %34
  %38 = atomicrmw add ptr %36, i32 -1 acq_rel, align 4
  %39 = icmp eq i32 %38, 1
  br i1 %39, label %40, label %_ZN4ncnn3Mat7releaseEv.exit

40:                                               ; preds = %37
  %41 = load ptr, ptr %31, align 8, !tbaa !30
  %.not3.i = icmp eq ptr %41, null
  %42 = load ptr, ptr %0, align 8, !tbaa !4
  br i1 %.not3.i, label %47, label %43

43:                                               ; preds = %40
  %44 = load ptr, ptr %41, align 8, !tbaa !31
  %45 = getelementptr inbounds nuw i8, ptr %44, i64 24
  %46 = load ptr, ptr %45, align 8
  tail call void %46(ptr noundef nonnull align 8 dereferenceable(8) %41, ptr noundef %42)
  br label %_ZN4ncnn3Mat7releaseEv.exit

47:                                               ; preds = %40
  %.not.i42 = icmp eq ptr %42, null
  br i1 %.not.i42, label %_ZN4ncnn3Mat7releaseEv.exit, label %48

48:                                               ; preds = %47
  tail call void @free(ptr noundef nonnull %42) #12
  br label %_ZN4ncnn3Mat7releaseEv.exit

_ZN4ncnn3Mat7releaseEv.exit:                      ; preds = %48, %47, %34, %37, %43
  %49 = getelementptr inbounds nuw i8, ptr %0, i64 64
  tail call void @llvm.memset.p0.i64(ptr noundef nonnull align 8 dereferenceable(16) %0, i8 0, i64 16, i1 false)
  store i64 %5, ptr %25, align 8, !tbaa !17
  store i32 %6, ptr %28, align 8, !tbaa !18
  store ptr %7, ptr %31, align 8, !tbaa !30
  store i32 4, ptr %10, align 8, !tbaa !15
  store i32 %1, ptr %13, align 4, !tbaa !16
  store i32 %2, ptr %16, align 8, !tbaa !20
  store i32 %3, ptr %19, align 4, !tbaa !21
  store i32 %4, ptr %22, align 8, !tbaa !14
  %50 = sext i32 %1 to i64
  %51 = sext i32 %2 to i64
  %52 = mul nsw i64 %51, %50
  %53 = sext i32 %3 to i64
  %54 = mul i64 %52, %53
  %55 = mul i64 %54, %5
  %56 = add i64 %55, 15
  %57 = and i64 %56, -16
  %58 = udiv i64 %57, %5
  store i64 %58, ptr %49, align 8, !tbaa !13
  %59 = sext i32 %4 to i64
  %60 = mul i64 %5, %59
  %61 = mul i64 %60, %58
  %62 = add i64 %61, 3
  %63 = and i64 %62, -4
  %.not = icmp eq i64 %63, 0
  br i1 %.not, label %thread-pre-split.thread, label %64

64:                                               ; preds = %_ZN4ncnn3Mat7releaseEv.exit
  %.not20 = icmp eq ptr %7, null
  br i1 %.not20, label %_ZN4ncnnL10fastMallocEm.exit, label %65

65:                                               ; preds = %64
  %66 = add i64 %63, 4
  %67 = load ptr, ptr %7, align 8, !tbaa !31
  %68 = getelementptr inbounds nuw i8, ptr %67, i64 16
  %69 = load ptr, ptr %68, align 8
  %70 = tail call noundef ptr %69(ptr noundef nonnull align 8 dereferenceable(8) %7, i64 noundef %66)
  br label %thread-pre-split

_ZN4ncnnL10fastMallocEm.exit:                     ; preds = %64
  call void @llvm.lifetime.start.p0(i64 8, ptr nonnull %9) #12
  store ptr null, ptr %9, align 8, !tbaa !33
  %71 = add i64 %63, 68
  %72 = call i32 @posix_memalign(ptr noundef nonnull %9, i64 noundef 64, i64 noundef %71) #12
  %.not.i43 = icmp eq i32 %72, 0
  %.pre = load ptr, ptr %9, align 8
  %73 = select i1 %.not.i43, ptr %.pre, ptr null
  call void @llvm.lifetime.end.p0(i64 8, ptr nonnull %9) #12
  br label %thread-pre-split

thread-pre-split:                                 ; preds = %65, %_ZN4ncnnL10fastMallocEm.exit
  %.sink = phi ptr [ %70, %65 ], [ %73, %_ZN4ncnnL10fastMallocEm.exit ]
  store ptr %.sink, ptr %0, align 8, !tbaa !4
  %.not21 = icmp eq ptr %.sink, null
  br i1 %.not21, label %thread-pre-split.thread, label %74

74:                                               ; preds = %thread-pre-split
  %75 = getelementptr inbounds nuw i8, ptr %.sink, i64 %63
  store ptr %75, ptr %35, align 8, !tbaa !19
  store i32 1, ptr %75, align 4, !tbaa !34
  br label %thread-pre-split.thread

thread-pre-split.thread:                          ; preds = %_ZN4ncnn3Mat7releaseEv.exit, %thread-pre-split, %74, %8
  ret void
}